target datalayout = "e-m:e-p270:32:32-p271:32:32-p272:64:64-i64:64-i128:128-f80:128-n8:16:32:64-S128"
target triple = "x86_64-pc-linux-gnu"

%struct.Node = type { i32 }
%struct.Expr = type { i32 }
%struct.Const = type { %struct.Expr, i32, i32, i32, i32, i64, i8, i8, i32 }
%struct.FuncExpr = type { %struct.Expr, i32, i32, i8, i8, i32, i32, i32, ptr, i32 }
%struct.ArrayCoerceExpr = type { %struct.Expr, ptr, ptr, i32, i32, i32, i32, i32 }
%struct.List = type { i32, i32, i32, ptr, [0 x %union.ListCell] }
%union.ListCell = type { ptr }

; Function Attrs: inlinehint nounwind uwtable
define internal i32 @DatumGetInt32(i64 noundef %0) #4 {
  %2 = alloca i64, align 8
  store i64 %0, ptr %2, align 8
  %3 = load i64, ptr %2, align 8
  %4 = trunc i64 %3 to i32
  ret i32 %4
}

; Function Attrs: inlinehint nounwind uwtable
define internal ptr @list_nth_cell(ptr noundef %0, i32 noundef %1) #4 {
  %3 = alloca ptr, align 8
  %4 = alloca i32, align 4
  store ptr %0, ptr %3, align 8
  store i32 %1, ptr %4, align 4
  %5 = load ptr, ptr %3, align 8
  %6 = getelementptr inbounds nuw %struct.List, ptr %5, i32 0, i32 3
  %7 = load ptr, ptr %6, align 8
  %8 = load i32, ptr %4, align 4
  %9 = sext i32 %8 to i64
  %10 = getelementptr inbounds %union.ListCell, ptr %7, i64 %9
  ret ptr %10
}

; Function Attrs: inlinehint nounwind uwtable
define internal i32 @list_length(ptr noundef %0) #4 {
  %2 = alloca ptr, align 8
  store ptr %0, ptr %2, align 8
  %3 = load ptr, ptr %2, align 8
  %4 = icmp ne ptr %3, null
  br i1 %4, label %5, label %9

5:                                                ; preds = %1
  %6 = load ptr, ptr %2, align 8
  %7 = getelementptr inbounds nuw %struct.List, ptr %6, i32 0, i32 1
  %8 = load i32, ptr %7, align 4
  br label %10

9:                                                ; preds = %1
  br label %10

10:                                               ; preds = %9, %5
  %11 = phi i32 [ %8, %5 ], [ 0, %9 ]
  ret i32 %11
}

; Function Attrs: nounwind uwtable
define dso_local zeroext i1 @exprIsLengthCoercion(ptr noundef %0, ptr noundef %1) #0 {
  %3 = alloca i1, align 1
  %4 = alloca ptr, align 8
  %5 = alloca ptr, align 8
  %6 = alloca ptr, align 8
  %7 = alloca i32, align 4
  %8 = alloca ptr, align 8
  %9 = alloca i32, align 4
  %10 = alloca ptr, align 8
  store ptr %0, ptr %4, align 8
  store ptr %1, ptr %5, align 8
  %11 = load ptr, ptr %5, align 8
  %12 = icmp ne ptr %11, null
  br i1 %12, label %13, label %15

13:                                               ; preds = %2
  %14 = load ptr, ptr %5, align 8
  store i32 -1, ptr %14, align 4
  br label %15

15:                                               ; preds = %13, %2
  %16 = load ptr, ptr %4, align 8
  %17 = icmp ne ptr %16, null
  br i1 %17, label %18, label %78

18:                                               ; preds = %15
  %19 = load ptr, ptr %4, align 8
  %20 = getelementptr inbounds nuw %struct.Node, ptr %19, i32 0, i32 0
  %21 = load i32, ptr %20, align 4
  %22 = icmp eq i32 %21, 15
  br i1 %22, label %23, label %78

23:                                               ; preds = %18
  call void @llvm.lifetime.start.p0(i64 8, ptr %6) #7
  %24 = load ptr, ptr %4, align 8
  store ptr %24, ptr %6, align 8
  call void @llvm.lifetime.start.p0(i64 4, ptr %7) #7
  call void @llvm.lifetime.start.p0(i64 8, ptr %8) #7
  %25 = load ptr, ptr %6, align 8
  %26 = getelementptr inbounds nuw %struct.FuncExpr, ptr %25, i32 0, i32 5
  %27 = load i32, ptr %26, align 8
  %28 = icmp ne i32 %27, 1
  br i1 %28, label %29, label %35

29:                                               ; preds = %23
  %30 = load ptr, ptr %6, align 8
  %31 = getelementptr inbounds nuw %struct.FuncExpr, ptr %30, i32 0, i32 5
  %32 = load i32, ptr %31, align 8
  %33 = icmp ne i32 %32, 2
  br i1 %33, label %34, label %35

34:                                               ; preds = %29
  store i1 false, ptr %3, align 1
  store i32 1, ptr %9, align 4
  br label %77

35:                                               ; preds = %29, %23
  %36 = load ptr, ptr %6, align 8
  %37 = getelementptr inbounds nuw %struct.FuncExpr, ptr %36, i32 0, i32 8
  %38 = load ptr, ptr %37, align 8
  %39 = call i32 @list_length(ptr noundef %38)
  store i32 %39, ptr %7, align 4
  %40 = load i32, ptr %7, align 4
  %41 = icmp slt i32 %40, 2
  br i1 %41, label %45, label %42

42:                                               ; preds = %35
  %43 = load i32, ptr %7, align 4
  %44 = icmp sgt i32 %43, 3
  br i1 %44, label %45, label %46

45:                                               ; preds = %42, %35
  store i1 false, ptr %3, align 1
  store i32 1, ptr %9, align 4
  br label %77

46:                                               ; preds = %42
  %47 = load ptr, ptr %6, align 8
  %48 = getelementptr inbounds nuw %struct.FuncExpr, ptr %47, i32 0, i32 8
  %49 = load ptr, ptr %48, align 8
  %50 = call ptr @list_nth_cell(ptr noundef %49, i32 noundef 1)
  %51 = load ptr, ptr %50, align 8
  store ptr %51, ptr %8, align 8
  %52 = load ptr, ptr %8, align 8
  %53 = getelementptr inbounds nuw %struct.Node, ptr %52, i32 0, i32 0
  %54 = load i32, ptr %53, align 4
  %55 = icmp eq i32 %54, 7
  br i1 %55, label %56, label %66

56:                                               ; preds = %46
  %57 = load ptr, ptr %8, align 8
  %58 = getelementptr inbounds nuw %struct.Const, ptr %57, i32 0, i32 1
  %59 = load i32, ptr %58, align 4
  %60 = icmp ne i32 %59, 23
  br i1 %60, label %66, label %61

61:                                               ; preds = %56
  %62 = load ptr, ptr %8, align 8
  %63 = getelementptr inbounds nuw %struct.Const, ptr %62, i32 0, i32 6
  %64 = load i8, ptr %63, align 8, !range !6, !noundef !7
  %65 = trunc i8 %64 to i1
  br i1 %65, label %66, label %67

66:                                               ; preds = %61, %56, %46
  store i1 false, ptr %3, align 1
  store i32 1, ptr %9, align 4
  br label %77

67:                                               ; preds = %61
  %68 = load ptr, ptr %5, align 8
  %69 = icmp ne ptr %68, null
  br i1 %69, label %70, label %76

70:                                               ; preds = %67
  %71 = load ptr, ptr %8, align 8
  %72 = getelementptr inbounds nuw %struct.Const, ptr %71, i32 0, i32 5
  %73 = load i64, ptr %72, align 8
  %74 = call i32 @DatumGetInt32(i64 noundef %73)
  %75 = load ptr, ptr %5, align 8
  store i32 %74, ptr %75, align 4
  br label %76

76:                                               ; preds = %70, %67
  store i1 true, ptr %3, align 1
  store i32 1, ptr %9, align 4
  br label %77

77:                                               ; preds = %76, %66, %45, %34
  call void @llvm.lifetime.end.p0(i64 8, ptr %8) #7
  call void @llvm.lifetime.end.p0(i64 4, ptr %7) #7
  call void @llvm.lifetime.end.p0(i64 8, ptr %6) #7
  br label %104

78:                                               ; preds = %18, %15
  %79 = load ptr, ptr %4, align 8
  %80 = icmp ne ptr %79, null
  br i1 %80, label %81, label %103

81:                                               ; preds = %78
  %82 = load ptr, ptr %4, align 8
  %83 = getelementptr inbounds nuw %struct.Node, ptr %82, i32 0, i32 0
  %84 = load i32, ptr %83, align 4
  %85 = icmp eq i32 %84, 29
  br i1 %85, label %86, label %103

86:                                               ; preds = %81
  call void @llvm.lifetime.start.p0(i64 8, ptr %10) #7
  %87 = load ptr, ptr %4, align 8
  store ptr %87, ptr %10, align 8
  %88 = load ptr, ptr %10, align 8
  %89 = getelementptr inbounds nuw %struct.ArrayCoerceExpr, ptr %88, i32 0, i32 4
  %90 = load i32, ptr %89, align 4
  %91 = icmp slt i32 %90, 0
  br i1 %91, label %92, label %93

92:                                               ; preds = %86
  store i1 false, ptr %3, align 1
  store i32 1, ptr %9, align 4
  br label %102

93:                                               ; preds = %86
  %94 = load ptr, ptr %5, align 8
  %95 = icmp ne ptr %94, null
  br i1 %95, label %96, label %101

96:                                               ; preds = %93
  %97 = load ptr, ptr %10, align 8
  %98 = getelementptr inbounds nuw %struct.ArrayCoerceExpr, ptr %97, i32 0, i32 4
  %99 = load i32, ptr %98, align 4
  %100 = load ptr, ptr %5, align 8
  store i32 %99, ptr %100, align 4
  br label %101

101:                                              ; preds = %96, %93
  store i1 true, ptr %3, align 1
  store i32 1, ptr %9, align 4
  br label %102

102:                                              ; preds = %101, %92
  call void @llvm.lifetime.end.p0(i64 8, ptr %10) #7
  br label %104

103:                                              ; preds = %81, %78
  store i1 false, ptr %3, align 1
  br label %104

104:                                              ; preds = %103, %102, %77
  %105 = load i1, ptr %3, align 1
  ret i1 %105
}