; Function Attrs: mustprogress nofree norecurse nosync nounwind willreturn memory(read, argmem: readwrite, inaccessiblemem: none) uwtable
define dso_local zeroext i1 @exprIsLengthCoercion(ptr noundef readonly captures(address_is_null) %0, ptr noundef writeonly captures(address_is_null) %1) local_unnamed_addr #4 {
  %.not = icmp eq ptr %1, null
  br i1 %.not, label %4, label %3

3:                                                ; preds = %2
  store i32 -1, ptr %1, align 4
  br label %4

4:                                                ; preds = %3, %2
  %.not32 = icmp eq ptr %0, null
  br i1 %.not32, label %.critedge, label %5

5:                                                ; preds = %4
  %6 = load i32, ptr %0, align 4
  switch i32 %6, label %.critedge [
    i32 15, label %7
    i32 29, label %33
  ]

7:                                                ; preds = %5
  %8 = getelementptr inbounds nuw i8, ptr %0, i64 16
  %9 = load i32, ptr %8, align 8
  %.off = add i32 %9, -1
  %switch = icmp ult i32 %.off, 2
  br i1 %switch, label %10, label %.critedge

10:                                               ; preds = %7
  %11 = getelementptr inbounds nuw i8, ptr %0, i64 32
  %12 = load ptr, ptr %11, align 8
  %.not.i = icmp eq ptr %12, null
  br i1 %.not.i, label %.critedge, label %list_length.exit

list_length.exit:                                 ; preds = %10
  %13 = getelementptr inbounds nuw i8, ptr %12, i64 4
  %14 = load i32, ptr %13, align 4
  %15 = add i32 %14, -4
  %or.cond = icmp ult i32 %15, -2
  br i1 %or.cond, label %.critedge, label %16

16:                                               ; preds = %list_length.exit
  %17 = getelementptr i8, ptr %12, i64 16
  %.val = load ptr, ptr %17, align 8
  %18 = getelementptr inbounds nuw i8, ptr %.val, i64 8
  %19 = load ptr, ptr %18, align 8
  %20 = load i32, ptr %19, align 4
  %21 = icmp eq i32 %20, 7
  br i1 %21, label %22, label %.critedge

22:                                               ; preds = %16
  %23 = getelementptr inbounds nuw i8, ptr %19, i64 4
  %24 = load i32, ptr %23, align 4
  %.not35 = icmp eq i32 %24, 23
  br i1 %.not35, label %25, label %.critedge

25:                                               ; preds = %22
  %26 = getelementptr inbounds nuw i8, ptr %19, i64 32
  %27 = load i8, ptr %26, align 8, !range !4, !noundef !5
  %28 = trunc nuw i8 %27 to i1
  %brmerge = or i1 %.not, %28
  %not. = xor i1 %28, true
  br i1 %brmerge, label %.critedge, label %29

29:                                               ; preds = %25
  %30 = getelementptr inbounds nuw i8, ptr %19, i64 24
  %31 = load i64, ptr %30, align 8
  %32 = trunc i64 %31 to i32
  br label %.critedge.sink.split

33:                                               ; preds = %5
  %34 = getelementptr inbounds nuw i8, ptr %0, i64 28
  %35 = load i32, ptr %34, align 4
  %36 = icmp sgt i32 %35, -1
  %.not36 = xor i1 %36, true
  %brmerge37 = or i1 %.not, %.not36
  br i1 %brmerge37, label %.critedge, label %.critedge.sink.split

.critedge.sink.split:                             ; preds = %33, %29
  %.sink = phi i32 [ %32, %29 ], [ %35, %33 ]
  %.1.ph = phi i1 [ true, %29 ], [ %36, %33 ]
  store i32 %.sink, ptr %1, align 4
  br label %.critedge

.critedge:                                        ; preds = %.critedge.sink.split, %5, %10, %33, %25, %7, %4, %list_length.exit, %22, %16
  %.1 = phi i1 [ false, %7 ], [ false, %list_length.exit ], [ %not., %25 ], [ false, %22 ], [ false, %16 ], [ %36, %33 ], [ false, %4 ], [ false, %10 ], [ false, %5 ], [ %.1.ph, %.critedge.sink.split ]
  ret i1 %.1
}